target datalayout = "e-m:e-p270:32:32-p271:32:32-p272:64:64-i64:64-i128:128-f80:128-n8:16:32:64-S128"
target triple = "x86_64-pc-linux-gnu"

%struct.lhash_st = type { i64, ptr, i64, i32, ptr, ptr }

; Function Attrs: nounwind uwtable
define hidden ptr @lh_new(ptr noundef %0, ptr noundef %1) #0 {
  %3 = alloca ptr, align 8
  %4 = alloca ptr, align 8
  %5 = alloca ptr, align 8
  %6 = alloca ptr, align 8
  %7 = alloca i32, align 4
  store ptr %0, ptr %4, align 8, !tbaa !6
  store ptr %1, ptr %5, align 8, !tbaa !6
  call void @llvm.lifetime.start.p0(i64 8, ptr %6) #6
  %8 = call noalias ptr @malloc(i64 noundef 48) #7
  store ptr %8, ptr %6, align 8, !tbaa !10
  %9 = load ptr, ptr %6, align 8, !tbaa !10
  %10 = icmp eq ptr %9, null
  br i1 %10, label %11, label %12

11:                                               ; preds = %2
  store ptr null, ptr %3, align 8
  store i32 1, ptr %7, align 4
  br label %60

12:                                               ; preds = %2
  %13 = load ptr, ptr %6, align 8, !tbaa !10
  call void @llvm.memset.p0.i64(ptr align 8 %13, i8 0, i64 48, i1 false)
  %14 = load ptr, ptr %6, align 8, !tbaa !10
  %15 = getelementptr inbounds nuw %struct.lhash_st, ptr %14, i32 0, i32 2
  store i64 16, ptr %15, align 8, !tbaa !12
  %16 = load ptr, ptr %6, align 8, !tbaa !10
  %17 = getelementptr inbounds nuw %struct.lhash_st, ptr %16, i32 0, i32 2
  %18 = load i64, ptr %17, align 8, !tbaa !12
  %19 = mul i64 8, %18
  %20 = call noalias ptr @malloc(i64 noundef %19) #7
  %21 = load ptr, ptr %6, align 8, !tbaa !10
  %22 = getelementptr inbounds nuw %struct.lhash_st, ptr %21, i32 0, i32 1
  store ptr %20, ptr %22, align 8, !tbaa !17
  %23 = load ptr, ptr %6, align 8, !tbaa !10
  %24 = getelementptr inbounds nuw %struct.lhash_st, ptr %23, i32 0, i32 1
  %25 = load ptr, ptr %24, align 8, !tbaa !17
  %26 = icmp eq ptr %25, null
  br i1 %26, label %27, label %29

27:                                               ; preds = %12
  %28 = load ptr, ptr %6, align 8, !tbaa !10
  call void @free(ptr noundef %28) #6
  store ptr null, ptr %3, align 8
  store i32 1, ptr %7, align 4
  br label %60

29:                                               ; preds = %12
  %30 = load ptr, ptr %6, align 8, !tbaa !10
  %31 = getelementptr inbounds nuw %struct.lhash_st, ptr %30, i32 0, i32 1
  %32 = load ptr, ptr %31, align 8, !tbaa !17
  %33 = load ptr, ptr %6, align 8, !tbaa !10
  %34 = getelementptr inbounds nuw %struct.lhash_st, ptr %33, i32 0, i32 2
  %35 = load i64, ptr %34, align 8, !tbaa !12
  %36 = mul i64 8, %35
  call void @llvm.memset.p0.i64(ptr align 8 %32, i8 0, i64 %36, i1 false)
  %37 = load ptr, ptr %5, align 8, !tbaa !6
  %38 = load ptr, ptr %6, align 8, !tbaa !10
  %39 = getelementptr inbounds nuw %struct.lhash_st, ptr %38, i32 0, i32 4
  store ptr %37, ptr %39, align 8, !tbaa !18
  %40 = load ptr, ptr %6, align 8, !tbaa !10
  %41 = getelementptr inbounds nuw %struct.lhash_st, ptr %40, i32 0, i32 4
  %42 = load ptr, ptr %41, align 8, !tbaa !18
  %43 = icmp eq ptr %42, null
  br i1 %43, label %44, label %47

44:                                               ; preds = %29
  %45 = load ptr, ptr %6, align 8, !tbaa !10
  %46 = getelementptr inbounds nuw %struct.lhash_st, ptr %45, i32 0, i32 4
  store ptr @strcmp, ptr %46, align 8, !tbaa !18
  br label %47

47:                                               ; preds = %44, %29
  %48 = load ptr, ptr %4, align 8, !tbaa !6
  %49 = load ptr, ptr %6, align 8, !tbaa !10
  %50 = getelementptr inbounds nuw %struct.lhash_st, ptr %49, i32 0, i32 5
  store ptr %48, ptr %50, align 8, !tbaa !19
  %51 = load ptr, ptr %6, align 8, !tbaa !10
  %52 = getelementptr inbounds nuw %struct.lhash_st, ptr %51, i32 0, i32 5
  %53 = load ptr, ptr %52, align 8, !tbaa !19
  %54 = icmp eq ptr %53, null
  br i1 %54, label %55, label %58

55:                                               ; preds = %47
  %56 = load ptr, ptr %6, align 8, !tbaa !10
  %57 = getelementptr inbounds nuw %struct.lhash_st, ptr %56, i32 0, i32 5
  store ptr @lh_strhash, ptr %57, align 8, !tbaa !19
  br label %58

58:                                               ; preds = %55, %47
  %59 = load ptr, ptr %6, align 8, !tbaa !10
  store ptr %59, ptr %3, align 8
  store i32 1, ptr %7, align 4
  br label %60

60:                                               ; preds = %58, %27, %11
  call void @llvm.lifetime.end.p0(i64 8, ptr %6) #6
  %61 = load ptr, ptr %3, align 8
  ret ptr %61
}